target datalayout = "e-m:e-p270:32:32-p271:32:32-p272:64:64-i64:64-i128:128-f80:128-n8:16:32:64-S128"
target triple = "x86_64-pc-linux-gnu"

%struct.grpc_slice = type { ptr, %"union.grpc_slice::grpc_slice_data" }
%"union.grpc_slice::grpc_slice_data" = type { %"struct.grpc_slice::grpc_slice_data::grpc_slice_refcounted", [8 x i8] }
%"struct.grpc_slice::grpc_slice_data::grpc_slice_refcounted" = type { i64, ptr }
%"struct.grpc_slice::grpc_slice_data::grpc_slice_inlined" = type { i8, [23 x i8] }
%struct.grpc_slice_refcount = type { %"struct.std::atomic", ptr }
%"struct.std::atomic" = type { %"struct.std::__atomic_base" }
%"struct.std::__atomic_base" = type { i64 }
%"class.grpc_core::DebugLocation" = type { i8 }

; Function Attrs: alwaysinline mustprogress nounwind uwtable
define linkonce_odr noundef i64 @_ZNSt13__atomic_baseImE9fetch_addEmSt12memory_order(ptr noundef nonnull align 8 dereferenceable(8) %0, i64 noundef %1, i32 noundef %2) #18 comdat align 2 {
  %4 = alloca ptr, align 8
  %5 = alloca i64, align 8
  %6 = alloca i32, align 4
  %7 = alloca i64, align 8
  %8 = alloca i64, align 8
  store ptr %0, ptr %4, align 8, !tbaa !61
  store i64 %1, ptr %5, align 8, !tbaa !12
  store i32 %2, ptr %6, align 4, !tbaa !94
  %9 = load ptr, ptr %4, align 8
  %10 = getelementptr inbounds nuw %"struct.std::__atomic_base", ptr %9, i32 0, i32 0
  %11 = load i32, ptr %6, align 4, !tbaa !94
  %12 = load i64, ptr %5, align 8, !tbaa !12
  store i64 %12, ptr %7, align 8, !tbaa !12
  switch i32 %11, label %13 [
    i32 1, label %16
    i32 2, label %16
    i32 3, label %19
    i32 4, label %22
    i32 5, label %25
  ]

13:                                               ; preds = %3
  %14 = load i64, ptr %7, align 8
  %15 = atomicrmw add ptr %10, i64 %14 monotonic, align 8
  store i64 %15, ptr %8, align 8
  br label %28

16:                                               ; preds = %3, %3
  %17 = load i64, ptr %7, align 8
  %18 = atomicrmw add ptr %10, i64 %17 acquire, align 8
  store i64 %18, ptr %8, align 8
  br label %28

19:                                               ; preds = %3
  %20 = load i64, ptr %7, align 8
  %21 = atomicrmw add ptr %10, i64 %20 release, align 8
  store i64 %21, ptr %8, align 8
  br label %28

22:                                               ; preds = %3
  %23 = load i64, ptr %7, align 8
  %24 = atomicrmw add ptr %10, i64 %23 acq_rel, align 8
  store i64 %24, ptr %8, align 8
  br label %28

25:                                               ; preds = %3
  %26 = load i64, ptr %7, align 8
  %27 = atomicrmw add ptr %10, i64 %26 seq_cst, align 8
  store i64 %27, ptr %8, align 8
  br label %28

28:                                               ; preds = %25, %22, %19, %16, %13
  %29 = load i64, ptr %8, align 8, !tbaa !12
  ret i64 %29
}

; Function Attrs: mustprogress nounwind uwtable
define linkonce_odr void @_ZN19grpc_slice_refcount3RefEN9grpc_core13DebugLocationE(ptr noundef nonnull align 8 dereferenceable(16) %0) #7 comdat align 2 {
  %2 = alloca ptr, align 8
  %3 = alloca i64, align 8
  store ptr %0, ptr %2, align 8, !tbaa !18
  %4 = load ptr, ptr %2, align 8
  call void @llvm.lifetime.start.p0(i64 8, ptr %3) #3
  %5 = getelementptr inbounds nuw %struct.grpc_slice_refcount, ptr %4, i32 0, i32 0
  %6 = call noundef i64 @_ZNSt13__atomic_baseImE9fetch_addEmSt12memory_order(ptr noundef nonnull align 8 dereferenceable(8) %5, i64 noundef 1, i32 noundef 0) #3
  store i64 %6, ptr %3, align 8, !tbaa !12
  call void @llvm.lifetime.end.p0(i64 8, ptr %3) #3
  ret void
}

; Function Attrs: mustprogress nounwind uwtable
define linkonce_odr void @_ZN9grpc_core13DebugLocationC2Ev(ptr noundef nonnull align 1 dereferenceable(1) %0) unnamed_addr #7 comdat align 2 {
  %2 = alloca ptr, align 8
  store ptr %0, ptr %2, align 8, !tbaa !50
  ret void
}

; Function Attrs: mustprogress nounwind uwtable
define linkonce_odr noundef ptr @_ZN19grpc_slice_refcount12NoopRefcountEv() #7 comdat align 2 {
  ret ptr inttoptr (i64 1 to ptr)
}

; Function Attrs: mustprogress uwtable
define void @grpc_slice_sub(ptr dead_on_unwind noalias writable sret(%struct.grpc_slice) align 8 %0, ptr noundef byval(%struct.grpc_slice) align 8 %1, i64 noundef %2, i64 noundef %3) #4 {
  %5 = alloca i64, align 8
  %6 = alloca i64, align 8
  %7 = alloca %struct.grpc_slice, align 8
  %8 = alloca %struct.grpc_slice, align 8
  %9 = alloca %"class.grpc_core::DebugLocation", align 1
  store i64 %2, ptr %5, align 8, !tbaa !12
  store i64 %3, ptr %6, align 8, !tbaa !12
  %10 = load i64, ptr %6, align 8, !tbaa !12
  %11 = load i64, ptr %5, align 8, !tbaa !12
  %12 = sub i64 %10, %11
  %13 = icmp ule i64 %12, 23
  br i1 %13, label %14, label %43

14:                                               ; preds = %4
  %15 = getelementptr inbounds nuw %struct.grpc_slice, ptr %0, i32 0, i32 0
  store ptr null, ptr %15, align 8, !tbaa !3
  %16 = load i64, ptr %6, align 8, !tbaa !12
  %17 = load i64, ptr %5, align 8, !tbaa !12
  %18 = sub i64 %16, %17
  %19 = trunc i64 %18 to i8
  %20 = getelementptr inbounds nuw %struct.grpc_slice, ptr %0, i32 0, i32 1
  %21 = getelementptr inbounds nuw %"struct.grpc_slice::grpc_slice_data::grpc_slice_inlined", ptr %20, i32 0, i32 0
  store i8 %19, ptr %21, align 8, !tbaa !9
  %22 = getelementptr inbounds nuw %struct.grpc_slice, ptr %0, i32 0, i32 1
  %23 = getelementptr inbounds nuw %"struct.grpc_slice::grpc_slice_data::grpc_slice_inlined", ptr %22, i32 0, i32 1
  %24 = getelementptr inbounds [23 x i8], ptr %23, i64 0, i64 0
  %25 = getelementptr inbounds nuw %struct.grpc_slice, ptr %1, i32 0, i32 0
  %26 = load ptr, ptr %25, align 8, !tbaa !3
  %27 = icmp ne ptr %26, null
  br i1 %27, label %28, label %32

28:                                               ; preds = %14
  %29 = getelementptr inbounds nuw %struct.grpc_slice, ptr %1, i32 0, i32 1
  %30 = getelementptr inbounds nuw %"struct.grpc_slice::grpc_slice_data::grpc_slice_refcounted", ptr %29, i32 0, i32 1
  %31 = load ptr, ptr %30, align 8, !tbaa !9
  br label %36

32:                                               ; preds = %14
  %33 = getelementptr inbounds nuw %struct.grpc_slice, ptr %1, i32 0, i32 1
  %34 = getelementptr inbounds nuw %"struct.grpc_slice::grpc_slice_data::grpc_slice_inlined", ptr %33, i32 0, i32 1
  %35 = getelementptr inbounds [23 x i8], ptr %34, i64 0, i64 0
  br label %36

36:                                               ; preds = %32, %28
  %37 = phi ptr [ %31, %28 ], [ %35, %32 ]
  %38 = load i64, ptr %5, align 8, !tbaa !12
  %39 = getelementptr inbounds nuw i8, ptr %37, i64 %38
  %40 = load i64, ptr %6, align 8, !tbaa !12
  %41 = load i64, ptr %5, align 8, !tbaa !12
  %42 = sub i64 %40, %41
  call void @llvm.memcpy.p0.p0.i64(ptr align 1 %24, ptr align 1 %39, i64 %42, i1 false)
  br label %54

43:                                               ; preds = %4
  call void @llvm.lifetime.start.p0(i64 32, ptr %7) #3
  call void @llvm.memcpy.p0.p0.i64(ptr align 8 %8, ptr align 8 %1, i64 32, i1 false), !tbaa.struct !17
  %44 = load i64, ptr %5, align 8, !tbaa !12
  %45 = load i64, ptr %6, align 8, !tbaa !12
  call void @grpc_slice_sub_no_ref(ptr dead_on_unwind writable sret(%struct.grpc_slice) align 8 %7, ptr noundef byval(%struct.grpc_slice) align 8 %8, i64 noundef %44, i64 noundef %45)
  call void @llvm.memcpy.p0.p0.i64(ptr align 8 %0, ptr align 8 %7, i64 32, i1 false), !tbaa.struct !17
  call void @llvm.lifetime.end.p0(i64 32, ptr %7) #3
  %46 = getelementptr inbounds nuw %struct.grpc_slice, ptr %0, i32 0, i32 0
  %47 = load ptr, ptr %46, align 8, !tbaa !3
  %48 = call noundef ptr @_ZN19grpc_slice_refcount12NoopRefcountEv()
  %49 = icmp ne ptr %47, %48
  br i1 %49, label %50, label %53

50:                                               ; preds = %43
  %51 = getelementptr inbounds nuw %struct.grpc_slice, ptr %0, i32 0, i32 0
  %52 = load ptr, ptr %51, align 8, !tbaa !3
  call void @_ZN9grpc_core13DebugLocationC2Ev(ptr noundef nonnull align 1 dereferenceable(1) %9)
  call void @_ZN19grpc_slice_refcount3RefEN9grpc_core13DebugLocationE(ptr noundef nonnull align 8 dereferenceable(16) %52)
  br label %53

53:                                               ; preds = %50, %43
  br label %54

54:                                               ; preds = %53, %36
  ret void
}