; Function Attrs: mustprogress uwtable
define void @grpc_slice_sub(ptr dead_on_unwind noalias writable sret(%struct.grpc_slice) align 8 captures(none) %0, ptr noundef readonly byval(%struct.grpc_slice) align 8 captures(none) %1, i64 noundef %2, i64 noundef %3) local_unnamed_addr #3 {
  %5 = sub i64 %3, %2
  %6 = icmp ult i64 %5, 24
  br i1 %6, label %7, label %17

7:                                                ; preds = %4
  store ptr null, ptr %0, align 8, !tbaa !3
  %8 = trunc nuw nsw i64 %5 to i8
  %9 = getelementptr inbounds nuw i8, ptr %0, i64 8
  store i8 %8, ptr %9, align 8, !tbaa !9
  %10 = getelementptr inbounds nuw i8, ptr %0, i64 9
  %11 = load ptr, ptr %1, align 8, !tbaa !3
  %.not9 = icmp eq ptr %11, null
  %12 = getelementptr inbounds nuw i8, ptr %1, i64 16
  %13 = load ptr, ptr %12, align 8
  %14 = getelementptr inbounds nuw i8, ptr %1, i64 9
  %15 = select i1 %.not9, ptr %14, ptr %13
  %16 = getelementptr inbounds nuw i8, ptr %15, i64 %2
  call void @llvm.memcpy.p0.p0.i64(ptr nonnull align 1 %10, ptr align 1 %16, i64 %5, i1 false)
  br label %21

17:                                               ; preds = %4
  tail call void @grpc_slice_sub_no_ref(ptr dead_on_unwind nonnull writable sret(%struct.grpc_slice) align 8 %0, ptr noundef nonnull byval(%struct.grpc_slice) align 8 %1, i64 noundef %2, i64 noundef %3)
  %18 = load ptr, ptr %0, align 8, !tbaa !3
  %.not = icmp eq ptr %18, inttoptr (i64 1 to ptr)
  br i1 %.not, label %21, label %19

19:                                               ; preds = %17
  %20 = atomicrmw add ptr %18, i64 1 monotonic, align 8
  br label %21

21:                                               ; preds = %17, %19, %7
  ret void
}